#include <math.h>
#include <stdio.h>
#include <stdlib.h>
#include <string.h>

int main(){
int i,m,d,e,f,r;
double a,g;
r=0;
scanf("%lf",&a);
char b[501],c[501];
for(i=0;i<2;i++){
	if(i==0){
		scanf("%s",b);
        m=strlen(b);
	}else{
		scanf("%s",c);
		d=strlen(c);
	}
}
if(m>=d){
	f=m;
}else{
	f=d;
}
e=0;
 for(i=0;i<f;i++){
		if((b[i]=='A'||(b[i]=='T')||b[i]=='C'||b[i]=='G')&&(c[i]=='A'||(c[i]=='T')||c[i]=='C'||c[i]=='G')){
			if(c[i]==b[i]){
					e++;
				}
		}else{
	        r=1;
			break;
		}
		
 }
 if((m==d)&&(r==0)){
   g=1.0*e/m;
     if(g>a){
			printf("yes");
	 }else{
			printf("no");
	 }
 }else{
	printf("error");
 }


return 0;

}
