; ModuleID = 'source-C-CXX/4/220.c'
source_filename = "source-C-CXX/4/220.c"
target datalayout = "e-m:e-p270:32:32-p271:32:32-p272:64:64-i64:64-f80:128-n8:16:32:64-S128"
target triple = "x86_64-pc-linux-gnu"

@.str = private unnamed_addr constant [4 x i8] c"%lf\00", align 1
@.str.1 = private unnamed_addr constant [3 x i8] c"%s\00", align 1
@.str.2 = private unnamed_addr constant [4 x i8] c"yes\00", align 1
@.str.3 = private unnamed_addr constant [3 x i8] c"no\00", align 1
@.str.4 = private unnamed_addr constant [6 x i8] c"error\00", align 1

; Function Attrs: nofree nounwind sspstrong uwtable
define dso_local i32 @main() local_unnamed_addr #0 {
  %1 = alloca double, align 8
  %2 = alloca [501 x i8], align 16
  %3 = alloca [501 x i8], align 16
  %4 = bitcast double* %1 to i8*
  call void @llvm.lifetime.start.p0i8(i64 8, i8* nonnull %4) #4
  %5 = call i32 (i8*, ...) @__isoc99_scanf(i8* getelementptr inbounds ([4 x i8], [4 x i8]* @.str, i64 0, i64 0), double* nonnull %1)
  %6 = getelementptr inbounds [501 x i8], [501 x i8]* %2, i64 0, i64 0
  call void @llvm.lifetime.start.p0i8(i64 501, i8* nonnull %6) #4
  %7 = getelementptr inbounds [501 x i8], [501 x i8]* %3, i64 0, i64 0
  call void @llvm.lifetime.start.p0i8(i64 501, i8* nonnull %7) #4
  %8 = call i32 (i8*, ...) @__isoc99_scanf(i8* getelementptr inbounds ([3 x i8], [3 x i8]* @.str.1, i64 0, i64 0), i8* nonnull %6)
  %9 = call i64 @strlen(i8* noundef nonnull %6) #5
  %10 = trunc i64 %9 to i32
  %11 = call i32 (i8*, ...) @__isoc99_scanf(i8* getelementptr inbounds ([3 x i8], [3 x i8]* @.str.1, i64 0, i64 0), i8* nonnull %7)
  %12 = call i64 @strlen(i8* noundef nonnull %7) #5
  %13 = trunc i64 %12 to i32
  %14 = icmp slt i32 %10, %13
  %15 = select i1 %14, i32 %13, i32 %10
  %16 = icmp sgt i32 %15, 0
  br i1 %16, label %17, label %37

17:                                               ; preds = %0
  %18 = zext i32 %15 to i64
  %19 = zext i32 %15 to i64
  br label %20

20:                                               ; preds = %17, %28
  %21 = phi i64 [ 0, %17 ], [ %32, %28 ]
  %22 = phi i32 [ 0, %17 ], [ %31, %28 ]
  %23 = getelementptr inbounds [501 x i8], [501 x i8]* %2, i64 0, i64 %21
  %24 = load i8, i8* %23, align 1, !tbaa !5
  switch i8 %24, label %48 [
    i8 65, label %25
    i8 84, label %25
    i8 67, label %25
    i8 71, label %25
  ]

25:                                               ; preds = %20, %20, %20, %20
  %26 = getelementptr inbounds [501 x i8], [501 x i8]* %3, i64 0, i64 %21
  %27 = load i8, i8* %26, align 1, !tbaa !5
  switch i8 %27, label %48 [
    i8 65, label %28
    i8 84, label %28
    i8 67, label %28
    i8 71, label %28
  ]

28:                                               ; preds = %25, %25, %25, %25
  %29 = icmp eq i8 %27, %24
  %30 = zext i1 %29 to i32
  %31 = add nuw nsw i32 %22, %30
  %32 = add nuw nsw i64 %21, 1
  %33 = icmp eq i64 %32, %19
  br i1 %33, label %34, label %20, !llvm.loop !8

34:                                               ; preds = %28
  %35 = icmp uge i64 %32, %18
  %36 = sitofp i32 %31 to double
  br label %37

37:                                               ; preds = %34, %0
  %38 = phi double [ 0.000000e+00, %0 ], [ %36, %34 ]
  %39 = phi i1 [ true, %0 ], [ %35, %34 ]
  %40 = icmp eq i32 %10, %13
  %41 = select i1 %40, i1 %39, i1 false
  br i1 %41, label %42, label %48

42:                                               ; preds = %37
  %43 = sitofp i32 %10 to double
  %44 = fdiv double %38, %43
  %45 = load double, double* %1, align 8, !tbaa !10
  %46 = fcmp ogt double %44, %45
  %47 = select i1 %46, i8* getelementptr inbounds ([4 x i8], [4 x i8]* @.str.2, i64 0, i64 0), i8* getelementptr inbounds ([3 x i8], [3 x i8]* @.str.3, i64 0, i64 0)
  br label %48

48:                                               ; preds = %20, %25, %37, %42
  %49 = phi i8* [ %47, %42 ], [ getelementptr inbounds ([6 x i8], [6 x i8]* @.str.4, i64 0, i64 0), %37 ], [ getelementptr inbounds ([6 x i8], [6 x i8]* @.str.4, i64 0, i64 0), %25 ], [ getelementptr inbounds ([6 x i8], [6 x i8]* @.str.4, i64 0, i64 0), %20 ]
  %50 = call i32 (i8*, ...) @printf(i8* nonnull dereferenceable(1) %49)
  call void @llvm.lifetime.end.p0i8(i64 501, i8* nonnull %7) #4
  call void @llvm.lifetime.end.p0i8(i64 501, i8* nonnull %6) #4
  call void @llvm.lifetime.end.p0i8(i64 8, i8* nonnull %4) #4
  ret i32 0
}

; Function Attrs: argmemonly mustprogress nofree nosync nounwind willreturn
declare void @llvm.lifetime.start.p0i8(i64 immarg, i8* nocapture) #1

; Function Attrs: nofree nounwind
declare noundef i32 @__isoc99_scanf(i8* nocapture noundef readonly, ...) local_unnamed_addr #2

; Function Attrs: argmemonly mustprogress nofree nounwind readonly willreturn
declare i64 @strlen(i8* nocapture) local_unnamed_addr #3

; Function Attrs: nofree nounwind
declare noundef i32 @printf(i8* nocapture noundef readonly, ...) local_unnamed_addr #2

; Function Attrs: argmemonly mustprogress nofree nosync nounwind willreturn
declare void @llvm.lifetime.end.p0i8(i64 immarg, i8* nocapture) #1


!llvm.module.flags = !{!0, !1, !2, !3}
!llvm.ident = !{!4}

!0 = !{i32 1, !"wchar_size", i32 4}
!1 = !{i32 7, !"PIC Level", i32 2}
!2 = !{i32 7, !"PIE Level", i32 2}
!3 = !{i32 7, !"uwtable", i32 1}
!4 = !{!"clang version 13.0.0"}
!5 = !{!6, !6, i64 0}
!6 = !{!"omnipotent char", !7, i64 0}
!7 = !{!"Simple C/C++ TBAA"}
!8 = distinct !{!8, !9}
!9 = !{!"llvm.loop.mustprogress"}
!10 = !{!11, !11, i64 0}
!11 = !{!"double", !6, i64 0}
